target datalayout = "e-m:e-p270:32:32-p271:32:32-p272:64:64-i64:64-i128:128-f80:128-n8:16:32:64-S128"
target triple = "x86_64-pc-linux-gnu"

%struct.SDL_CameraDriver = type { ptr, ptr, %struct.SDL_CameraDriverImpl, ptr, ptr, %struct.SDL_PendingCameraEvent, ptr, %struct.SDL_AtomicInt, %struct.SDL_AtomicInt }
%struct.SDL_CameraDriverImpl = type { ptr, ptr, ptr, ptr, ptr, ptr, ptr, ptr, i8 }
%struct.SDL_PendingCameraEvent = type { i32, i32, ptr }
%struct.SDL_AtomicInt = type { i32 }
%struct.SDL_Camera = type { ptr, ptr, i32, %struct.SDL_AtomicInt, ptr, ptr, ptr, ptr, i32, %struct.SDL_CameraSpec, %struct.SDL_CameraSpec, i32, ptr, i32, i64, i64, ptr, ptr, [8 x %struct.SurfaceList], %struct.SurfaceList, %struct.SurfaceList, %struct.SurfaceList, ptr, i32, i8, %struct.SDL_AtomicInt, %struct.SDL_AtomicInt, ptr, i32, i32, ptr }
%struct.SDL_CameraSpec = type { i32, i32, i32, i32, i32, i32 }
%struct.SurfaceList = type { ptr, i64, ptr }

@camera_driver = internal global %struct.SDL_CameraDriver zeroinitializer, align 8

; Function Attrs: nounwind uwtable
define hidden void @RefPhysicalCamera(ptr noundef %0) #0 {
  %2 = alloca ptr, align 8
  store ptr %0, ptr %2, align 8
  %3 = load ptr, ptr %2, align 8
  %4 = getelementptr inbounds nuw %struct.SDL_Camera, ptr %3, i32 0, i32 3
  %5 = call i32 @SDL_AddAtomicInt_REAL(ptr noundef %4, i32 noundef 1)
  ret void
}

; Function Attrs: nounwind uwtable
define hidden ptr @SDL_AddCamera(ptr noundef %0, i32 noundef %1, i32 noundef %2, ptr noundef %3, ptr noundef %4) #0 {
  %6 = alloca ptr, align 8
  %7 = alloca ptr, align 8
  %8 = alloca i32, align 4
  %9 = alloca i32, align 4
  %10 = alloca ptr, align 8
  %11 = alloca ptr, align 8
  %12 = alloca i32, align 4
  %13 = alloca i32, align 4
  %14 = alloca ptr, align 8
  %15 = alloca i32, align 4
  %16 = alloca ptr, align 8
  %17 = alloca ptr, align 8
  %18 = alloca ptr, align 8
  store ptr %0, ptr %7, align 8
  store i32 %1, ptr %8, align 4
  store i32 %2, ptr %9, align 4
  store ptr %3, ptr %10, align 8
  store ptr %4, ptr %11, align 8
  br label %19

19:                                               ; preds = %5
  br label %20

20:                                               ; preds = %19
  br label %21

21:                                               ; preds = %20
  br label %22

22:                                               ; preds = %21
  br label %23

23:                                               ; preds = %22
  br label %24

24:                                               ; preds = %23
  br label %25

25:                                               ; preds = %24
  br label %26

26:                                               ; preds = %25
  %27 = load ptr, ptr getelementptr inbounds nuw (%struct.SDL_CameraDriver, ptr @camera_driver, i32 0, i32 3), align 8
  call void @SDL_LockRWLockForReading_REAL(ptr noundef %27)
  call void @llvm.lifetime.start.p0(i64 4, ptr %12) #7
  %28 = call i32 @SDL_GetAtomicInt_REAL(ptr noundef getelementptr inbounds nuw (%struct.SDL_CameraDriver, ptr @camera_driver, i32 0, i32 8))
  store i32 %28, ptr %12, align 4
  %29 = load ptr, ptr getelementptr inbounds nuw (%struct.SDL_CameraDriver, ptr @camera_driver, i32 0, i32 3), align 8
  call void @SDL_UnlockRWLock_REAL(ptr noundef %29)
  %30 = load i32, ptr %12, align 4
  %31 = icmp ne i32 %30, 0
  br i1 %31, label %32, label %33

32:                                               ; preds = %26
  store ptr null, ptr %6, align 8
  store i32 1, ptr %13, align 4
  br label %211

33:                                               ; preds = %26
  call void @llvm.lifetime.start.p0(i64 8, ptr %14) #7
  %34 = call noalias ptr @SDL_calloc_REAL(i64 noundef 1, i64 noundef 472) #9
  store ptr %34, ptr %14, align 8
  %35 = load ptr, ptr %14, align 8
  %36 = icmp ne ptr %35, null
  br i1 %36, label %38, label %37

37:                                               ; preds = %33
  store ptr null, ptr %6, align 8
  store i32 1, ptr %13, align 4
  br label %210

38:                                               ; preds = %33
  %39 = load ptr, ptr %7, align 8
  %40 = call noalias ptr @SDL_strdup_REAL(ptr noundef %39)
  %41 = load ptr, ptr %14, align 8
  %42 = getelementptr inbounds nuw %struct.SDL_Camera, ptr %41, i32 0, i32 1
  store ptr %40, ptr %42, align 8
  %43 = load ptr, ptr %14, align 8
  %44 = getelementptr inbounds nuw %struct.SDL_Camera, ptr %43, i32 0, i32 1
  %45 = load ptr, ptr %44, align 8
  %46 = icmp ne ptr %45, null
  br i1 %46, label %49, label %47

47:                                               ; preds = %38
  %48 = load ptr, ptr %14, align 8
  call void @SDL_free_REAL(ptr noundef %48)
  store ptr null, ptr %6, align 8
  store i32 1, ptr %13, align 4
  br label %210

49:                                               ; preds = %38
  %50 = load i32, ptr %8, align 4
  %51 = load ptr, ptr %14, align 8
  %52 = getelementptr inbounds nuw %struct.SDL_Camera, ptr %51, i32 0, i32 2
  store i32 %50, ptr %52, align 8
  %53 = call ptr @SDL_CreateMutex_REAL()
  %54 = load ptr, ptr %14, align 8
  %55 = getelementptr inbounds nuw %struct.SDL_Camera, ptr %54, i32 0, i32 0
  store ptr %53, ptr %55, align 8
  %56 = load ptr, ptr %14, align 8
  %57 = getelementptr inbounds nuw %struct.SDL_Camera, ptr %56, i32 0, i32 0
  %58 = load ptr, ptr %57, align 8
  %59 = icmp ne ptr %58, null
  br i1 %59, label %65, label %60

60:                                               ; preds = %49
  %61 = load ptr, ptr %14, align 8
  %62 = getelementptr inbounds nuw %struct.SDL_Camera, ptr %61, i32 0, i32 1
  %63 = load ptr, ptr %62, align 8
  call void @SDL_free_REAL(ptr noundef %63)
  %64 = load ptr, ptr %14, align 8
  call void @SDL_free_REAL(ptr noundef %64)
  store ptr null, ptr %6, align 8
  store i32 1, ptr %13, align 4
  br label %210

65:                                               ; preds = %49
  %66 = load i32, ptr %9, align 4
  %67 = add nsw i32 %66, 1
  %68 = sext i32 %67 to i64
  %69 = call noalias ptr @SDL_calloc_REAL(i64 noundef %68, i64 noundef 24) #9
  %70 = load ptr, ptr %14, align 8
  %71 = getelementptr inbounds nuw %struct.SDL_Camera, ptr %70, i32 0, i32 7
  store ptr %69, ptr %71, align 8
  %72 = load ptr, ptr %14, align 8
  %73 = getelementptr inbounds nuw %struct.SDL_Camera, ptr %72, i32 0, i32 7
  %74 = load ptr, ptr %73, align 8
  %75 = icmp ne ptr %74, null
  br i1 %75, label %84, label %76

76:                                               ; preds = %65
  %77 = load ptr, ptr %14, align 8
  %78 = getelementptr inbounds nuw %struct.SDL_Camera, ptr %77, i32 0, i32 0
  %79 = load ptr, ptr %78, align 8
  call void @SDL_DestroyMutex_REAL(ptr noundef %79)
  %80 = load ptr, ptr %14, align 8
  %81 = getelementptr inbounds nuw %struct.SDL_Camera, ptr %80, i32 0, i32 1
  %82 = load ptr, ptr %81, align 8
  call void @SDL_free_REAL(ptr noundef %82)
  %83 = load ptr, ptr %14, align 8
  call void @SDL_free_REAL(ptr noundef %83)
  store ptr null, ptr %6, align 8
  store i32 1, ptr %13, align 4
  br label %210

84:                                               ; preds = %65
  %85 = load i32, ptr %9, align 4
  %86 = icmp sgt i32 %85, 0
  br i1 %86, label %87, label %140

87:                                               ; preds = %84
  %88 = load ptr, ptr %14, align 8
  %89 = getelementptr inbounds nuw %struct.SDL_Camera, ptr %88, i32 0, i32 7
  %90 = load ptr, ptr %89, align 8
  %91 = load ptr, ptr %10, align 8
  %92 = load i32, ptr %9, align 4
  %93 = sext i32 %92 to i64
  %94 = mul i64 24, %93
  call void @llvm.memcpy.p0.p0.i64(ptr align 4 %90, ptr align 4 %91, i64 %94, i1 false)
  %95 = load ptr, ptr %14, align 8
  %96 = getelementptr inbounds nuw %struct.SDL_Camera, ptr %95, i32 0, i32 7
  %97 = load ptr, ptr %96, align 8
  %98 = load i32, ptr %9, align 4
  %99 = sext i32 %98 to i64
  call void @SDL_qsort_REAL(ptr noundef %97, i64 noundef %99, i64 noundef 24, ptr noundef @CameraSpecCmp)
  call void @llvm.lifetime.start.p0(i64 4, ptr %15) #7
  store i32 0, ptr %15, align 4
  br label %100

100:                                              ; preds = %136, %87
  %101 = load i32, ptr %15, align 4
  %102 = load i32, ptr %9, align 4
  %103 = icmp slt i32 %101, %102
  br i1 %103, label %105, label %104

104:                                              ; preds = %100
  store i32 10, ptr %13, align 4
  call void @llvm.lifetime.end.p0(i64 4, ptr %15) #7
  br label %139

105:                                              ; preds = %100
  call void @llvm.lifetime.start.p0(i64 8, ptr %16) #7
  %106 = load ptr, ptr %14, align 8
  %107 = getelementptr inbounds nuw %struct.SDL_Camera, ptr %106, i32 0, i32 7
  %108 = load ptr, ptr %107, align 8
  %109 = load i32, ptr %15, align 4
  %110 = sext i32 %109 to i64
  %111 = getelementptr inbounds %struct.SDL_CameraSpec, ptr %108, i64 %110
  store ptr %111, ptr %16, align 8
  call void @llvm.lifetime.start.p0(i64 8, ptr %17) #7
  %112 = load ptr, ptr %14, align 8
  %113 = getelementptr inbounds nuw %struct.SDL_Camera, ptr %112, i32 0, i32 7
  %114 = load ptr, ptr %113, align 8
  %115 = load i32, ptr %15, align 4
  %116 = add nsw i32 %115, 1
  %117 = sext i32 %116 to i64
  %118 = getelementptr inbounds %struct.SDL_CameraSpec, ptr %114, i64 %117
  store ptr %118, ptr %17, align 8
  %119 = load ptr, ptr %16, align 8
  %120 = load ptr, ptr %17, align 8
  %121 = call i32 @SDL_memcmp_REAL(ptr noundef %119, ptr noundef %120, i64 noundef 24)
  %122 = icmp eq i32 %121, 0
  br i1 %122, label %123, label %135

123:                                              ; preds = %105
  %124 = load ptr, ptr %16, align 8
  %125 = load ptr, ptr %17, align 8
  %126 = load i32, ptr %9, align 4
  %127 = load i32, ptr %15, align 4
  %128 = sub nsw i32 %126, %127
  %129 = sext i32 %128 to i64
  %130 = mul i64 24, %129
  call void @llvm.memmove.p0.p0.i64(ptr align 4 %124, ptr align 4 %125, i64 %130, i1 false)
  %131 = load i32, ptr %15, align 4
  %132 = add nsw i32 %131, -1
  store i32 %132, ptr %15, align 4
  %133 = load i32, ptr %9, align 4
  %134 = add nsw i32 %133, -1
  store i32 %134, ptr %9, align 4
  br label %135

135:                                              ; preds = %123, %105
  call void @llvm.lifetime.end.p0(i64 8, ptr %17) #7
  call void @llvm.lifetime.end.p0(i64 8, ptr %16) #7
  br label %136

136:                                              ; preds = %135
  %137 = load i32, ptr %15, align 4
  %138 = add nsw i32 %137, 1
  store i32 %138, ptr %15, align 4
  br label %100, !llvm.loop !3

139:                                              ; preds = %104
  br label %140

140:                                              ; preds = %139, %84
  %141 = load i32, ptr %9, align 4
  %142 = load ptr, ptr %14, align 8
  %143 = getelementptr inbounds nuw %struct.SDL_Camera, ptr %142, i32 0, i32 8
  store i32 %141, ptr %143, align 8
  %144 = load ptr, ptr %11, align 8
  %145 = load ptr, ptr %14, align 8
  %146 = getelementptr inbounds nuw %struct.SDL_Camera, ptr %145, i32 0, i32 12
  store ptr %144, ptr %146, align 8
  %147 = call i32 @SDL_GetNextObjectID()
  %148 = load ptr, ptr %14, align 8
  %149 = getelementptr inbounds nuw %struct.SDL_Camera, ptr %148, i32 0, i32 11
  store i32 %147, ptr %149, align 4
  %150 = load ptr, ptr %14, align 8
  %151 = getelementptr inbounds nuw %struct.SDL_Camera, ptr %150, i32 0, i32 25
  %152 = call i32 @SDL_SetAtomicInt_REAL(ptr noundef %151, i32 noundef 0)
  %153 = load ptr, ptr %14, align 8
  %154 = getelementptr inbounds nuw %struct.SDL_Camera, ptr %153, i32 0, i32 26
  %155 = call i32 @SDL_SetAtomicInt_REAL(ptr noundef %154, i32 noundef 0)
  %156 = load ptr, ptr %14, align 8
  call void @RefPhysicalCamera(ptr noundef %156)
  %157 = load ptr, ptr getelementptr inbounds nuw (%struct.SDL_CameraDriver, ptr @camera_driver, i32 0, i32 3), align 8
  call void @SDL_LockRWLockForWriting_REAL(ptr noundef %157)
  %158 = load ptr, ptr getelementptr inbounds nuw (%struct.SDL_CameraDriver, ptr @camera_driver, i32 0, i32 4), align 8
  %159 = load ptr, ptr %14, align 8
  %160 = getelementptr inbounds nuw %struct.SDL_Camera, ptr %159, i32 0, i32 11
  %161 = load i32, ptr %160, align 4
  %162 = zext i32 %161 to i64
  %163 = inttoptr i64 %162 to ptr
  %164 = load ptr, ptr %14, align 8
  %165 = call zeroext i1 @SDL_InsertIntoHashTable(ptr noundef %158, ptr noundef %163, ptr noundef %164, i1 noundef zeroext false)
  br i1 %165, label %166, label %168

166:                                              ; preds = %140
  %167 = call i32 @SDL_AddAtomicInt_REAL(ptr noundef getelementptr inbounds nuw (%struct.SDL_CameraDriver, ptr @camera_driver, i32 0, i32 7), i32 noundef 1)
  br label %179

168:                                              ; preds = %140
  %169 = load ptr, ptr %14, align 8
  %170 = getelementptr inbounds nuw %struct.SDL_Camera, ptr %169, i32 0, i32 0
  %171 = load ptr, ptr %170, align 8
  call void @SDL_DestroyMutex_REAL(ptr noundef %171)
  %172 = load ptr, ptr %14, align 8
  %173 = getelementptr inbounds nuw %struct.SDL_Camera, ptr %172, i32 0, i32 7
  %174 = load ptr, ptr %173, align 8
  call void @SDL_free_REAL(ptr noundef %174)
  %175 = load ptr, ptr %14, align 8
  %176 = getelementptr inbounds nuw %struct.SDL_Camera, ptr %175, i32 0, i32 1
  %177 = load ptr, ptr %176, align 8
  call void @SDL_free_REAL(ptr noundef %177)
  %178 = load ptr, ptr %14, align 8
  call void @SDL_free_REAL(ptr noundef %178)
  store ptr null, ptr %14, align 8
  br label %179

179:                                              ; preds = %168, %166
  %180 = load ptr, ptr %14, align 8
  %181 = icmp ne ptr %180, null
  br i1 %181, label %182, label %207

182:                                              ; preds = %179
  call void @llvm.lifetime.start.p0(i64 8, ptr %18) #7
  %183 = call noalias ptr @SDL_malloc_REAL(i64 noundef 16)
  store ptr %183, ptr %18, align 8
  %184 = load ptr, ptr %18, align 8
  %185 = icmp ne ptr %184, null
  br i1 %185, label %186, label %206

186:                                              ; preds = %182
  %187 = load ptr, ptr %18, align 8
  %188 = getelementptr inbounds nuw %struct.SDL_PendingCameraEvent, ptr %187, i32 0, i32 0
  store i32 5120, ptr %188, align 8
  %189 = load ptr, ptr %14, align 8
  %190 = getelementptr inbounds nuw %struct.SDL_Camera, ptr %189, i32 0, i32 11
  %191 = load i32, ptr %190, align 4
  %192 = load ptr, ptr %18, align 8
  %193 = getelementptr inbounds nuw %struct.SDL_PendingCameraEvent, ptr %192, i32 0, i32 1
  store i32 %191, ptr %193, align 4
  %194 = load ptr, ptr %18, align 8
  %195 = getelementptr inbounds nuw %struct.SDL_PendingCameraEvent, ptr %194, i32 0, i32 2
  store ptr null, ptr %195, align 8
  br label %196

196:                                              ; preds = %186
  br label %197

197:                                              ; preds = %196
  br label %198

198:                                              ; preds = %197
  br label %199

199:                                              ; preds = %198
  br label %200

200:                                              ; preds = %199
  br label %201

201:                                              ; preds = %200
  %202 = load ptr, ptr %18, align 8
  %203 = load ptr, ptr getelementptr inbounds nuw (%struct.SDL_CameraDriver, ptr @camera_driver, i32 0, i32 6), align 8
  %204 = getelementptr inbounds nuw %struct.SDL_PendingCameraEvent, ptr %203, i32 0, i32 2
  store ptr %202, ptr %204, align 8
  %205 = load ptr, ptr %18, align 8
  store ptr %205, ptr getelementptr inbounds nuw (%struct.SDL_CameraDriver, ptr @camera_driver, i32 0, i32 6), align 8
  br label %206

206:                                              ; preds = %201, %182
  call void @llvm.lifetime.end.p0(i64 8, ptr %18) #7
  br label %207

207:                                              ; preds = %206, %179
  %208 = load ptr, ptr getelementptr inbounds nuw (%struct.SDL_CameraDriver, ptr @camera_driver, i32 0, i32 3), align 8
  call void @SDL_UnlockRWLock_REAL(ptr noundef %208)
  %209 = load ptr, ptr %14, align 8
  store ptr %209, ptr %6, align 8
  store i32 1, ptr %13, align 4
  br label %210

210:                                              ; preds = %207, %76, %60, %47, %37
  call void @llvm.lifetime.end.p0(i64 8, ptr %14) #7
  br label %211

211:                                              ; preds = %210, %32
  call void @llvm.lifetime.end.p0(i64 4, ptr %12) #7
  %212 = load ptr, ptr %6, align 8
  ret ptr %212
}