; Function Attrs: nounwind uwtable
define hidden noundef ptr @SDL_AddCamera(ptr noundef %0, i32 noundef %1, i32 noundef %2, ptr noundef readonly captures(none) %3, ptr noundef %4) local_unnamed_addr #1 {
  %6 = load ptr, ptr getelementptr inbounds nuw (i8, ptr @camera_driver, i64 88), align 8
  tail call void @SDL_LockRWLockForReading_REAL(ptr noundef %6) #11
  %7 = tail call i32 @SDL_GetAtomicInt_REAL(ptr noundef nonnull getelementptr inbounds nuw (i8, ptr @camera_driver, i64 132)) #11
  %8 = load ptr, ptr getelementptr inbounds nuw (i8, ptr @camera_driver, i64 88), align 8
  tail call void @SDL_UnlockRWLock_REAL(ptr noundef %8) #11
  %.not = icmp eq i32 %7, 0
  br i1 %.not, label %9, label %79

9:                                                ; preds = %5
  %10 = tail call noalias dereferenceable_or_null(472) ptr @SDL_calloc_REAL(i64 noundef 1, i64 noundef 472) #13
  %.not72 = icmp eq ptr %10, null
  br i1 %.not72, label %79, label %11

11:                                               ; preds = %9
  %12 = tail call noalias ptr @SDL_strdup_REAL(ptr noundef %0) #11
  %13 = getelementptr inbounds nuw i8, ptr %10, i64 8
  store ptr %12, ptr %13, align 8
  %.not73 = icmp eq ptr %12, null
  br i1 %.not73, label %14, label %15

14:                                               ; preds = %11
  tail call void @SDL_free_REAL(ptr noundef nonnull %10) #11
  br label %79

15:                                               ; preds = %11
  %16 = getelementptr inbounds nuw i8, ptr %10, i64 16
  store i32 %1, ptr %16, align 8
  %17 = tail call ptr @SDL_CreateMutex_REAL() #11
  store ptr %17, ptr %10, align 8
  %.not74 = icmp eq ptr %17, null
  br i1 %.not74, label %18, label %20

18:                                               ; preds = %15
  %19 = load ptr, ptr %13, align 8
  tail call void @SDL_free_REAL(ptr noundef %19) #11
  tail call void @SDL_free_REAL(ptr noundef nonnull %10) #11
  br label %79

20:                                               ; preds = %15
  %21 = add nsw i32 %2, 1
  %22 = sext i32 %21 to i64
  %23 = tail call noalias ptr @SDL_calloc_REAL(i64 noundef %22, i64 noundef 24) #13
  %24 = getelementptr inbounds nuw i8, ptr %10, i64 48
  store ptr %23, ptr %24, align 8
  %.not75 = icmp eq ptr %23, null
  br i1 %.not75, label %25, label %28

25:                                               ; preds = %20
  %26 = load ptr, ptr %10, align 8
  tail call void @SDL_DestroyMutex_REAL(ptr noundef %26) #11
  %27 = load ptr, ptr %13, align 8
  tail call void @SDL_free_REAL(ptr noundef %27) #11
  tail call void @SDL_free_REAL(ptr noundef nonnull %10) #11
  br label %79

28:                                               ; preds = %20
  %29 = icmp sgt i32 %2, 0
  br i1 %29, label %30, label %.loopexit

30:                                               ; preds = %28
  %31 = zext nneg i32 %2 to i64
  %32 = mul nuw nsw i64 %31, 24
  tail call void @llvm.memcpy.p0.p0.i64(ptr nonnull align 4 %23, ptr align 4 %3, i64 %32, i1 false)
  tail call void @SDL_qsort_REAL(ptr noundef nonnull %23, i64 noundef %31, i64 noundef 24, ptr noundef nonnull @CameraSpecCmp) #11
  br label %33

33:                                               ; preds = %30, %46
  %.16382 = phi i32 [ %2, %30 ], [ %.2, %46 ]
  %.06481 = phi i32 [ 0, %30 ], [ %47, %46 ]
  %34 = load ptr, ptr %24, align 8
  %35 = sext i32 %.06481 to i64
  %36 = getelementptr inbounds %struct.SDL_CameraSpec, ptr %34, i64 %35
  %37 = getelementptr i8, ptr %36, i64 24
  %38 = tail call i32 @SDL_memcmp_REAL(ptr noundef %36, ptr noundef %37, i64 noundef 24) #11
  %39 = icmp eq i32 %38, 0
  br i1 %39, label %40, label %46

40:                                               ; preds = %33
  %41 = sub nsw i32 %.16382, %.06481
  %42 = sext i32 %41 to i64
  %43 = mul nsw i64 %42, 24
  tail call void @llvm.memmove.p0.p0.i64(ptr align 4 %36, ptr align 4 %37, i64 %43, i1 false)
  %44 = add nsw i32 %.06481, -1
  %45 = add nsw i32 %.16382, -1
  br label %46

46:                                               ; preds = %40, %33
  %.165 = phi i32 [ %44, %40 ], [ %.06481, %33 ]
  %.2 = phi i32 [ %45, %40 ], [ %.16382, %33 ]
  %47 = add nsw i32 %.165, 1
  %48 = icmp slt i32 %47, %.2
  br i1 %48, label %33, label %.loopexit, !llvm.loop !3

.loopexit:                                        ; preds = %46, %28
  %.062 = phi i32 [ %2, %28 ], [ %.2, %46 ]
  %49 = getelementptr inbounds nuw i8, ptr %10, i64 56
  store i32 %.062, ptr %49, align 8
  %50 = getelementptr inbounds nuw i8, ptr %10, i64 112
  store ptr %4, ptr %50, align 8
  %51 = tail call i32 @SDL_GetNextObjectID() #11
  %52 = getelementptr inbounds nuw i8, ptr %10, i64 108
  store i32 %51, ptr %52, align 4
  %53 = getelementptr inbounds nuw i8, ptr %10, i64 440
  %54 = tail call i32 @SDL_SetAtomicInt_REAL(ptr noundef nonnull %53, i32 noundef 0) #11
  %55 = getelementptr inbounds nuw i8, ptr %10, i64 444
  %56 = tail call i32 @SDL_SetAtomicInt_REAL(ptr noundef nonnull %55, i32 noundef 0) #11
  %57 = getelementptr inbounds nuw i8, ptr %10, i64 20
  %58 = tail call i32 @SDL_AddAtomicInt_REAL(ptr noundef nonnull %57, i32 noundef 1) #11
  %59 = load ptr, ptr getelementptr inbounds nuw (i8, ptr @camera_driver, i64 88), align 8
  tail call void @SDL_LockRWLockForWriting_REAL(ptr noundef %59) #11
  %60 = load ptr, ptr getelementptr inbounds nuw (i8, ptr @camera_driver, i64 96), align 8
  %61 = load i32, ptr %52, align 4
  %62 = zext i32 %61 to i64
  %63 = inttoptr i64 %62 to ptr
  %64 = tail call zeroext i1 @SDL_InsertIntoHashTable(ptr noundef %60, ptr noundef %63, ptr noundef nonnull %10, i1 noundef zeroext false) #11
  br i1 %64, label %68, label %.thread

.thread:                                          ; preds = %.loopexit
  %65 = load ptr, ptr %10, align 8
  tail call void @SDL_DestroyMutex_REAL(ptr noundef %65) #11
  %66 = load ptr, ptr %24, align 8
  tail call void @SDL_free_REAL(ptr noundef %66) #11
  %67 = load ptr, ptr %13, align 8
  tail call void @SDL_free_REAL(ptr noundef %67) #11
  tail call void @SDL_free_REAL(ptr noundef nonnull %10) #11
  br label %77

68:                                               ; preds = %.loopexit
  %69 = tail call i32 @SDL_AddAtomicInt_REAL(ptr noundef nonnull getelementptr inbounds nuw (i8, ptr @camera_driver, i64 128), i32 noundef 1) #11
  %70 = tail call noalias ptr @SDL_malloc_REAL(i64 noundef 16) #11
  %.not77 = icmp eq ptr %70, null
  br i1 %.not77, label %77, label %71

71:                                               ; preds = %68
  store i32 5120, ptr %70, align 8
  %72 = load i32, ptr %52, align 4
  %73 = getelementptr inbounds nuw i8, ptr %70, i64 4
  store i32 %72, ptr %73, align 4
  %74 = getelementptr inbounds nuw i8, ptr %70, i64 8
  store ptr null, ptr %74, align 8
  %75 = load ptr, ptr getelementptr inbounds nuw (i8, ptr @camera_driver, i64 120), align 8
  %76 = getelementptr inbounds nuw i8, ptr %75, i64 8
  store ptr %70, ptr %76, align 8
  store ptr %70, ptr getelementptr inbounds nuw (i8, ptr @camera_driver, i64 120), align 8
  br label %77

77:                                               ; preds = %.thread, %68, %71
  %.06680 = phi ptr [ null, %.thread ], [ %10, %68 ], [ %10, %71 ]
  %78 = load ptr, ptr getelementptr inbounds nuw (i8, ptr @camera_driver, i64 88), align 8
  tail call void @SDL_UnlockRWLock_REAL(ptr noundef %78) #11
  br label %79

79:                                               ; preds = %14, %18, %25, %77, %9, %5
  %.0 = phi ptr [ null, %5 ], [ %.06680, %77 ], [ null, %25 ], [ null, %18 ], [ null, %14 ], [ null, %9 ]
  ret ptr %.0
}